(lp0
(S'cppflags'
p1
ccopy_reg
_reconstructor
p2
(cino.utils
SpaceList
p3
c__builtin__
list
p4
(lp5
S'-mmcu=atmega2560'
p6
aS'-DF_CPU=16000000L'
p7
aS'-DARDUINO=106'
p8
aS'-I/Applications/Arduino.app/Contents/Resources/Java/hardware/arduino/cores/arduino'
p9
aS'-ffunction-sections'
p10
aS'-fdata-sections'
p11
aS'-g'
p12
aS'-Os'
p13
aS'-w'
p14
aS'-I/Applications/Arduino.app/Contents/Resources/Java/hardware/arduino/variants/mega'
p15
aS'-I/Applications/Arduino.app/Contents/Resources/Java/libraries/Servo'
p16
aS'-I/Applications/Arduino.app/Contents/Resources/Java/hardware/arduino/cores/arduino'
p17
aS'-I/Applications/Arduino.app/Contents/Resources/Java/hardware/arduino/cores/arduino/avr-libc'
p18
atp19
Rp20
tp21
a(S'cxx'
p22
S'/Applications/Arduino.app/Contents/Resources/Java/hardware/tools/avr/bin/avr-g++'
p23
tp24
a(S'arduino_libraries_dir'
p25
S'/Applications/Arduino.app/Contents/Resources/Java/libraries'
p26
tp27
a(S'avrdude'
p28
S'/Applications/Arduino.app/Contents/Resources/Java/hardware/tools/avr/bin/avrdude'
p29
tp30
a(S'ar'
p31
S'/Applications/Arduino.app/Contents/Resources/Java/hardware/tools/avr/bin/avr-ar'
p32
tp33
a(S'names'
p34
(dp35
S'cpp'
p36
S'%s.cpp'
p37
sS'obj'
p38
S'%s.o'
p39
sS'lib'
p40
S'lib%s.a'
p41
sS'deps'
p42
S'%s.d'
p43
stp44
a(S'ldflags'
p45
g2
(g3
g4
(lp46
g6
aS'-Wl,-Os'
p47
aS'-Wl,--gc-sections'
p48
atp49
Rp50
tp51
a(S'arduino_lib_version'
p52
g2
(cino.environment
Version
p53
c__builtin__
tuple
p54
(I1
I0
I6
tp55
tp56
Rp57
tp58
a(S'objcopy'
p59
S'/Applications/Arduino.app/Contents/Resources/Java/hardware/tools/avr/bin/avr-objcopy'
p60
tp61
a(S'board_models'
p62
cino.environment
BoardModels
p63
((lp64
(lp65
S'uno'
p66
a(dp67
S'build'
p68
(dp69
S'core'
p70
S'arduino'
p71
sS'mcu'
p72
S'atmega328p'
p73
sS'f_cpu'
p74
S'16000000L'
p75
sS'variant'
p76
S'standard'
p77
ssS'bootloader'
p78
(dp79
S'extended_fuses'
p80
S'0x05'
p81
sS'high_fuses'
p82
S'0xde'
p83
sS'low_fuses'
p84
S'0xff'
p85
sS'lock_bits'
p86
S'0x0F'
p87
sS'file'
p88
S'optiboot_atmega328.hex'
p89
sS'path'
p90
S'optiboot'
p91
sS'unlock_bits'
p92
S'0x3F'
p93
ssS'upload'
p94
(dp95
S'protocol'
p96
S'arduino'
p97
sS'maximum_size'
p98
S'32256'
p99
sS'speed'
p100
S'115200'
p101
ssS'name'
p102
S'Arduino Uno'
p103
saa(lp104
S'atmega328'
p105
a(dp106
S'build'
p107
(dp108
S'core'
p109
S'arduino'
p110
sS'mcu'
p111
S'atmega328p'
p112
sS'f_cpu'
p113
S'16000000L'
p114
sS'variant'
p115
S'standard'
p116
ssS'bootloader'
p117
(dp118
S'extended_fuses'
p119
S'0x05'
p120
sS'high_fuses'
p121
S'0xDA'
p122
sS'low_fuses'
p123
S'0xFF'
p124
sS'lock_bits'
p125
S'0x0F'
p126
sS'file'
p127
S'ATmegaBOOT_168_atmega328.hex'
p128
sS'path'
p129
S'atmega'
p130
sS'unlock_bits'
p131
S'0x3F'
p132
ssS'upload'
p133
(dp134
S'protocol'
p135
S'arduino'
p136
sS'maximum_size'
p137
S'30720'
p138
sS'speed'
p139
S'57600'
p140
ssS'name'
p141
S'Arduino Duemilanove w/ ATmega328'
p142
saa(lp143
S'diecimila'
p144
a(dp145
S'build'
p146
(dp147
S'core'
p148
S'arduino'
p149
sS'mcu'
p150
S'atmega168'
p151
sS'f_cpu'
p152
S'16000000L'
p153
sS'variant'
p154
S'standard'
p155
ssS'bootloader'
p156
(dp157
S'extended_fuses'
p158
S'0x00'
p159
sS'high_fuses'
p160
S'0xdd'
p161
sS'low_fuses'
p162
S'0xff'
p163
sS'lock_bits'
p164
S'0x0F'
p165
sS'file'
p166
S'ATmegaBOOT_168_diecimila.hex'
p167
sS'path'
p168
S'atmega'
p169
sS'unlock_bits'
p170
S'0x3F'
p171
ssS'upload'
p172
(dp173
S'protocol'
p174
S'arduino'
p175
sS'maximum_size'
p176
S'14336'
p177
sS'speed'
p178
S'19200'
p179
ssS'name'
p180
S'Arduino Diecimila or Duemilanove w/ ATmega168'
p181
saa(lp182
S'nano328'
p183
a(dp184
S'build'
p185
(dp186
S'core'
p187
S'arduino'
p188
sS'mcu'
p189
S'atmega328p'
p190
sS'f_cpu'
p191
S'16000000L'
p192
sS'variant'
p193
S'eightanaloginputs'
p194
ssS'bootloader'
p195
(dp196
S'extended_fuses'
p197
S'0x05'
p198
sS'high_fuses'
p199
S'0xDA'
p200
sS'low_fuses'
p201
S'0xFF'
p202
sS'lock_bits'
p203
S'0x0F'
p204
sS'file'
p205
S'ATmegaBOOT_168_atmega328.hex'
p206
sS'path'
p207
S'atmega'
p208
sS'unlock_bits'
p209
S'0x3F'
p210
ssS'upload'
p211
(dp212
S'protocol'
p213
S'arduino'
p214
sS'maximum_size'
p215
S'30720'
p216
sS'speed'
p217
S'57600'
p218
ssS'name'
p219
S'Arduino Nano w/ ATmega328'
p220
saa(lp221
S'nano'
p222
a(dp223
S'build'
p224
(dp225
S'core'
p226
S'arduino'
p227
sS'mcu'
p228
S'atmega168'
p229
sS'f_cpu'
p230
S'16000000L'
p231
sS'variant'
p232
S'eightanaloginputs'
p233
ssS'bootloader'
p234
(dp235
S'extended_fuses'
p236
S'0x00'
p237
sS'high_fuses'
p238
S'0xdd'
p239
sS'low_fuses'
p240
S'0xff'
p241
sS'lock_bits'
p242
S'0x0F'
p243
sS'file'
p244
S'ATmegaBOOT_168_diecimila.hex'
p245
sS'path'
p246
S'atmega'
p247
sS'unlock_bits'
p248
S'0x3F'
p249
ssS'upload'
p250
(dp251
S'protocol'
p252
S'arduino'
p253
sS'maximum_size'
p254
S'14336'
p255
sS'speed'
p256
S'19200'
p257
ssS'name'
p258
S'Arduino Nano w/ ATmega168'
p259
saa(lp260
S'mega2560'
p261
a(dp262
S'build'
p263
(dp264
S'core'
p265
S'arduino'
p266
sS'mcu'
p267
S'atmega2560'
p268
sS'f_cpu'
p269
S'16000000L'
p270
sS'variant'
p271
S'mega'
p272
ssS'bootloader'
p273
(dp274
S'extended_fuses'
p275
S'0xFD'
p276
sS'high_fuses'
p277
S'0xD8'
p278
sS'low_fuses'
p279
S'0xFF'
p280
sS'lock_bits'
p281
S'0x0F'
p282
sS'file'
p283
S'stk500boot_v2_mega2560.hex'
p284
sS'path'
p285
S'stk500v2'
p286
sS'unlock_bits'
p287
S'0x3F'
p288
ssS'upload'
p289
(dp290
S'protocol'
p291
S'wiring'
p292
sS'maximum_size'
p293
S'258048'
p294
sS'speed'
p295
S'115200'
p296
ssS'name'
p297
S'Arduino Mega 2560 or Mega ADK'
p298
saa(lp299
S'mega'
p300
a(dp301
S'build'
p302
(dp303
S'core'
p304
S'arduino'
p305
sS'mcu'
p306
S'atmega1280'
p307
sS'f_cpu'
p308
S'16000000L'
p309
sS'variant'
p310
S'mega'
p311
ssS'bootloader'
p312
(dp313
S'extended_fuses'
p314
S'0xF5'
p315
sS'high_fuses'
p316
S'0xDA'
p317
sS'low_fuses'
p318
S'0xFF'
p319
sS'lock_bits'
p320
S'0x0F'
p321
sS'file'
p322
S'ATmegaBOOT_168_atmega1280.hex'
p323
sS'path'
p324
S'atmega'
p325
sS'unlock_bits'
p326
S'0x3F'
p327
ssS'upload'
p328
(dp329
S'protocol'
p330
S'arduino'
p331
sS'maximum_size'
p332
S'126976'
p333
sS'speed'
p334
S'57600'
p335
ssS'name'
p336
S'Arduino Mega (ATmega1280)'
p337
saa(lp338
S'leonardo'
p339
a(dp340
S'build'
p341
(dp342
S'core'
p343
S'arduino'
p344
sS'f_cpu'
p345
S'16000000L'
p346
sS'vid'
p347
S'0x2341'
p348
sS'pid'
p349
S'0x8036'
p350
sS'variant'
p351
S'leonardo'
p352
sS'mcu'
p353
S'atmega32u4'
p354
ssS'bootloader'
p355
(dp356
S'extended_fuses'
p357
S'0xcb'
p358
sS'high_fuses'
p359
S'0xd8'
p360
sS'low_fuses'
p361
S'0xff'
p362
sS'lock_bits'
p363
S'0x2F'
p364
sS'file'
p365
S'Caterina-Leonardo.hex'
p366
sS'path'
p367
S'caterina'
p368
sS'unlock_bits'
p369
S'0x3F'
p370
ssS'upload'
p371
(dp372
S'protocol'
p373
S'avr109'
p374
sS'maximum_size'
p375
S'28672'
p376
sS'speed'
p377
S'57600'
p378
sS'disable_flushing'
p379
S'true'
p380
ssS'name'
p381
S'Arduino Leonardo'
p382
saa(lp383
S'esplora'
p384
a(dp385
S'build'
p386
(dp387
S'core'
p388
S'arduino'
p389
sS'f_cpu'
p390
S'16000000L'
p391
sS'vid'
p392
S'0x2341'
p393
sS'pid'
p394
S'0x803C'
p395
sS'variant'
p396
S'leonardo'
p397
sS'mcu'
p398
S'atmega32u4'
p399
ssS'bootloader'
p400
(dp401
S'extended_fuses'
p402
S'0xcb'
p403
sS'high_fuses'
p404
S'0xd8'
p405
sS'low_fuses'
p406
S'0xff'
p407
sS'lock_bits'
p408
S'0x2F'
p409
sS'file'
p410
S'Caterina-Esplora.hex'
p411
sS'path'
p412
S'caterina'
p413
sS'unlock_bits'
p414
S'0x3F'
p415
ssS'upload'
p416
(dp417
S'protocol'
p418
S'avr109'
p419
sS'maximum_size'
p420
S'28672'
p421
sS'speed'
p422
S'57600'
p423
sS'disable_flushing'
p424
S'true'
p425
ssS'name'
p426
S'Arduino Esplora'
p427
saa(lp428
S'micro'
p429
a(dp430
S'build'
p431
(dp432
S'core'
p433
S'arduino'
p434
sS'f_cpu'
p435
S'16000000L'
p436
sS'vid'
p437
S'0x2341'
p438
sS'pid'
p439
S'0x8037'
p440
sS'variant'
p441
S'micro'
p442
sS'mcu'
p443
S'atmega32u4'
p444
ssS'bootloader'
p445
(dp446
S'extended_fuses'
p447
S'0xcb'
p448
sS'high_fuses'
p449
S'0xd8'
p450
sS'low_fuses'
p451
S'0xff'
p452
sS'lock_bits'
p453
S'0x2F'
p454
sS'file'
p455
S'Caterina-Micro.hex'
p456
sS'path'
p457
S'caterina'
p458
sS'unlock_bits'
p459
S'0x3F'
p460
ssS'upload'
p461
(dp462
S'protocol'
p463
S'avr109'
p464
sS'maximum_size'
p465
S'28672'
p466
sS'speed'
p467
S'57600'
p468
sS'disable_flushing'
p469
S'true'
p470
ssS'name'
p471
S'Arduino Micro'
p472
saa(lp473
S'mini328'
p474
a(dp475
S'build'
p476
(dp477
S'core'
p478
S'arduino'
p479
sS'mcu'
p480
S'atmega328p'
p481
sS'f_cpu'
p482
S'16000000L'
p483
sS'variant'
p484
S'eightanaloginputs'
p485
ssS'bootloader'
p486
(dp487
S'extended_fuses'
p488
S'0x05'
p489
sS'high_fuses'
p490
S'0xd8'
p491
sS'low_fuses'
p492
S'0xff'
p493
sS'lock_bits'
p494
S'0x0F'
p495
sS'file'
p496
S'optiboot_atmega328-Mini.hex'
p497
sS'path'
p498
S'optiboot'
p499
sS'unlock_bits'
p500
S'0x3F'
p501
ssS'upload'
p502
(dp503
S'protocol'
p504
S'arduino'
p505
sS'maximum_size'
p506
S'28672'
p507
sS'speed'
p508
S'115200'
p509
ssS'name'
p510
S'Arduino Mini w/ ATmega328'
p511
saa(lp512
S'mini'
p513
a(dp514
S'build'
p515
(dp516
S'core'
p517
S'arduino'
p518
sS'mcu'
p519
S'atmega168'
p520
sS'f_cpu'
p521
S'16000000L'
p522
sS'variant'
p523
S'eightanaloginputs'
p524
ssS'bootloader'
p525
(dp526
S'extended_fuses'
p527
S'0x00'
p528
sS'high_fuses'
p529
S'0xdd'
p530
sS'low_fuses'
p531
S'0xff'
p532
sS'lock_bits'
p533
S'0x0F'
p534
sS'file'
p535
S'ATmegaBOOT_168_ng.hex'
p536
sS'path'
p537
S'atmega'
p538
sS'unlock_bits'
p539
S'0x3F'
p540
ssS'upload'
p541
(dp542
S'protocol'
p543
S'arduino'
p544
sS'maximum_size'
p545
S'14336'
p546
sS'speed'
p547
S'19200'
p548
ssS'name'
p549
S'Arduino Mini w/ ATmega168'
p550
saa(lp551
S'ethernet'
p552
a(dp553
S'build'
p554
(dp555
S'variant'
p556
S'ethernet'
p557
sS'mcu'
p558
S'atmega328p'
p559
sS'f_cpu'
p560
S'16000000L'
p561
sS'core'
p562
S'arduino'
p563
ssS'bootloader'
p564
(dp565
S'extended_fuses'
p566
S'0x05'
p567
sS'high_fuses'
p568
S'0xde'
p569
sS'low_fuses'
p570
S'0xff'
p571
sS'lock_bits'
p572
S'0x0F'
p573
sS'file'
p574
S'optiboot_atmega328.hex'
p575
sS'path'
p576
S'optiboot'
p577
sS'unlock_bits'
p578
S'0x3F'
p579
ssS'upload'
p580
(dp581
S'protocol'
p582
S'arduino'
p583
sS'maximum_size'
p584
S'32256'
p585
sS'speed'
p586
S'115200'
p587
ssS'name'
p588
S'Arduino Ethernet'
p589
saa(lp590
S'fio'
p591
a(dp592
S'build'
p593
(dp594
S'core'
p595
S'arduino'
p596
sS'mcu'
p597
S'atmega328p'
p598
sS'f_cpu'
p599
S'8000000L'
p600
sS'variant'
p601
S'eightanaloginputs'
p602
ssS'bootloader'
p603
(dp604
S'extended_fuses'
p605
S'0x05'
p606
sS'high_fuses'
p607
S'0xDA'
p608
sS'low_fuses'
p609
S'0xFF'
p610
sS'lock_bits'
p611
S'0x0F'
p612
sS'file'
p613
S'ATmegaBOOT_168_atmega328_pro_8MHz.hex'
p614
sS'path'
p615
S'arduino:atmega'
p616
sS'unlock_bits'
p617
S'0x3F'
p618
ssS'upload'
p619
(dp620
S'protocol'
p621
S'arduino'
p622
sS'maximum_size'
p623
S'30720'
p624
sS'speed'
p625
S'57600'
p626
ssS'name'
p627
S'Arduino Fio'
p628
saa(lp629
S'bt328'
p630
a(dp631
S'build'
p632
(dp633
S'core'
p634
S'arduino'
p635
sS'mcu'
p636
S'atmega328p'
p637
sS'f_cpu'
p638
S'16000000L'
p639
sS'variant'
p640
S'eightanaloginputs'
p641
ssS'bootloader'
p642
(dp643
S'extended_fuses'
p644
S'0x05'
p645
sS'high_fuses'
p646
S'0xd8'
p647
sS'low_fuses'
p648
S'0xff'
p649
sS'lock_bits'
p650
S'0x0F'
p651
sS'file'
p652
S'ATmegaBOOT_168_atmega328_bt.hex'
p653
sS'path'
p654
S'bt'
p655
sS'unlock_bits'
p656
S'0x3F'
p657
ssS'upload'
p658
(dp659
S'protocol'
p660
S'arduino'
p661
sS'maximum_size'
p662
S'28672'
p663
sS'speed'
p664
S'19200'
p665
sS'disable_flushing'
p666
S'true'
p667
ssS'name'
p668
S'Arduino BT w/ ATmega328'
p669
saa(lp670
S'bt'
p671
a(dp672
S'build'
p673
(dp674
S'core'
p675
S'arduino'
p676
sS'mcu'
p677
S'atmega168'
p678
sS'f_cpu'
p679
S'16000000L'
p680
sS'variant'
p681
S'eightanaloginputs'
p682
ssS'bootloader'
p683
(dp684
S'extended_fuses'
p685
S'0x00'
p686
sS'high_fuses'
p687
S'0xdd'
p688
sS'low_fuses'
p689
S'0xff'
p690
sS'lock_bits'
p691
S'0x0F'
p692
sS'file'
p693
S'ATmegaBOOT_168.hex'
p694
sS'path'
p695
S'bt'
p696
sS'unlock_bits'
p697
S'0x3F'
p698
ssS'upload'
p699
(dp700
S'protocol'
p701
S'arduino'
p702
sS'maximum_size'
p703
S'14336'
p704
sS'speed'
p705
S'19200'
p706
sS'disable_flushing'
p707
S'true'
p708
ssS'name'
p709
S'Arduino BT w/ ATmega168'
p710
saa(lp711
S'LilyPadUSB'
p712
a(dp713
S'build'
p714
(dp715
S'core'
p716
S'arduino'
p717
sS'f_cpu'
p718
S'8000000L'
p719
sS'vid'
p720
S'0x1B4F'
p721
sS'pid'
p722
S'0x9208'
p723
sS'variant'
p724
S'leonardo'
p725
sS'mcu'
p726
S'atmega32u4'
p727
ssS'bootloader'
p728
(dp729
S'extended_fuses'
p730
S'0xce'
p731
sS'high_fuses'
p732
S'0xd8'
p733
sS'low_fuses'
p734
S'0xff'
p735
sS'lock_bits'
p736
S'0x2F'
p737
sS'file'
p738
S'Caterina-LilyPadUSB.hex'
p739
sS'path'
p740
S'caterina-LilyPadUSB'
p741
sS'unlock_bits'
p742
S'0x3F'
p743
ssS'upload'
p744
(dp745
S'protocol'
p746
S'avr109'
p747
sS'maximum_size'
p748
S'28672'
p749
sS'speed'
p750
S'57600'
p751
sS'disable_flushing'
p752
S'true'
p753
ssS'name'
p754
S'LilyPad Arduino USB'
p755
saa(lp756
S'lilypad328'
p757
a(dp758
S'build'
p759
(dp760
S'core'
p761
S'arduino'
p762
sS'mcu'
p763
S'atmega328p'
p764
sS'f_cpu'
p765
S'8000000L'
p766
sS'variant'
p767
S'standard'
p768
ssS'bootloader'
p769
(dp770
S'extended_fuses'
p771
S'0x05'
p772
sS'high_fuses'
p773
S'0xDA'
p774
sS'low_fuses'
p775
S'0xFF'
p776
sS'lock_bits'
p777
S'0x0F'
p778
sS'file'
p779
S'ATmegaBOOT_168_atmega328_pro_8MHz.hex'
p780
sS'path'
p781
S'atmega'
p782
sS'unlock_bits'
p783
S'0x3F'
p784
ssS'upload'
p785
(dp786
S'protocol'
p787
S'arduino'
p788
sS'maximum_size'
p789
S'30720'
p790
sS'speed'
p791
S'57600'
p792
ssS'name'
p793
S'LilyPad Arduino w/ ATmega328'
p794
saa(lp795
S'lilypad'
p796
a(dp797
S'build'
p798
(dp799
S'core'
p800
S'arduino'
p801
sS'mcu'
p802
S'atmega168'
p803
sS'f_cpu'
p804
S'8000000L'
p805
sS'variant'
p806
S'standard'
p807
ssS'bootloader'
p808
(dp809
S'extended_fuses'
p810
S'0x00'
p811
sS'high_fuses'
p812
S'0xdd'
p813
sS'low_fuses'
p814
S'0xe2'
p815
sS'lock_bits'
p816
S'0x0F'
p817
sS'file'
p818
S'LilyPadBOOT_168.hex'
p819
sS'path'
p820
S'lilypad'
p821
sS'unlock_bits'
p822
S'0x3F'
p823
ssS'upload'
p824
(dp825
S'protocol'
p826
S'arduino'
p827
sS'maximum_size'
p828
S'14336'
p829
sS'speed'
p830
S'19200'
p831
ssS'name'
p832
S'LilyPad Arduino w/ ATmega168'
p833
saa(lp834
S'pro5v328'
p835
a(dp836
S'build'
p837
(dp838
S'core'
p839
S'arduino'
p840
sS'mcu'
p841
S'atmega328p'
p842
sS'f_cpu'
p843
S'16000000L'
p844
sS'variant'
p845
S'standard'
p846
ssS'bootloader'
p847
(dp848
S'extended_fuses'
p849
S'0x05'
p850
sS'high_fuses'
p851
S'0xDA'
p852
sS'low_fuses'
p853
S'0xFF'
p854
sS'lock_bits'
p855
S'0x0F'
p856
sS'file'
p857
S'ATmegaBOOT_168_atmega328.hex'
p858
sS'path'
p859
S'atmega'
p860
sS'unlock_bits'
p861
S'0x3F'
p862
ssS'upload'
p863
(dp864
S'protocol'
p865
S'arduino'
p866
sS'maximum_size'
p867
S'30720'
p868
sS'speed'
p869
S'57600'
p870
ssS'name'
p871
S'Arduino Pro or Pro Mini (5V, 16 MHz) w/ ATmega328'
p872
saa(lp873
S'pro5v'
p874
a(dp875
S'build'
p876
(dp877
S'core'
p878
S'arduino'
p879
sS'mcu'
p880
S'atmega168'
p881
sS'f_cpu'
p882
S'16000000L'
p883
sS'variant'
p884
S'standard'
p885
ssS'bootloader'
p886
(dp887
S'extended_fuses'
p888
S'0x00'
p889
sS'high_fuses'
p890
S'0xdd'
p891
sS'low_fuses'
p892
S'0xff'
p893
sS'lock_bits'
p894
S'0x0F'
p895
sS'file'
p896
S'ATmegaBOOT_168_diecimila.hex'
p897
sS'path'
p898
S'atmega'
p899
sS'unlock_bits'
p900
S'0x3F'
p901
ssS'upload'
p902
(dp903
S'protocol'
p904
S'arduino'
p905
sS'maximum_size'
p906
S'14336'
p907
sS'speed'
p908
S'19200'
p909
ssS'name'
p910
S'Arduino Pro or Pro Mini (5V, 16 MHz) w/ ATmega168'
p911
saa(lp912
S'pro328'
p913
a(dp914
S'build'
p915
(dp916
S'core'
p917
S'arduino'
p918
sS'mcu'
p919
S'atmega328p'
p920
sS'f_cpu'
p921
S'8000000L'
p922
sS'variant'
p923
S'standard'
p924
ssS'bootloader'
p925
(dp926
S'extended_fuses'
p927
S'0x05'
p928
sS'high_fuses'
p929
S'0xDA'
p930
sS'low_fuses'
p931
S'0xFF'
p932
sS'lock_bits'
p933
S'0x0F'
p934
sS'file'
p935
S'ATmegaBOOT_168_atmega328_pro_8MHz.hex'
p936
sS'path'
p937
S'atmega'
p938
sS'unlock_bits'
p939
S'0x3F'
p940
ssS'upload'
p941
(dp942
S'protocol'
p943
S'arduino'
p944
sS'maximum_size'
p945
S'30720'
p946
sS'speed'
p947
S'57600'
p948
ssS'name'
p949
S'Arduino Pro or Pro Mini (3.3V, 8 MHz) w/ ATmega328'
p950
saa(lp951
S'pro'
p952
a(dp953
S'build'
p954
(dp955
S'core'
p956
S'arduino'
p957
sS'mcu'
p958
S'atmega168'
p959
sS'f_cpu'
p960
S'8000000L'
p961
sS'variant'
p962
S'standard'
p963
ssS'bootloader'
p964
(dp965
S'extended_fuses'
p966
S'0x00'
p967
sS'high_fuses'
p968
S'0xdd'
p969
sS'low_fuses'
p970
S'0xc6'
p971
sS'lock_bits'
p972
S'0x0F'
p973
sS'file'
p974
S'ATmegaBOOT_168_pro_8MHz.hex'
p975
sS'path'
p976
S'atmega'
p977
sS'unlock_bits'
p978
S'0x3F'
p979
ssS'upload'
p980
(dp981
S'protocol'
p982
S'arduino'
p983
sS'maximum_size'
p984
S'14336'
p985
sS'speed'
p986
S'19200'
p987
ssS'name'
p988
S'Arduino Pro or Pro Mini (3.3V, 8 MHz) w/ ATmega168'
p989
saa(lp990
S'atmega168'
p991
a(dp992
S'build'
p993
(dp994
S'core'
p995
S'arduino'
p996
sS'mcu'
p997
S'atmega168'
p998
sS'f_cpu'
p999
S'16000000L'
p1000
sS'variant'
p1001
S'standard'
p1002
ssS'bootloader'
p1003
(dp1004
S'extended_fuses'
p1005
S'0x00'
p1006
sS'high_fuses'
p1007
S'0xdd'
p1008
sS'low_fuses'
p1009
S'0xff'
p1010
sS'lock_bits'
p1011
S'0x0F'
p1012
sS'file'
p1013
S'ATmegaBOOT_168_ng.hex'
p1014
sS'path'
p1015
S'atmega'
p1016
sS'unlock_bits'
p1017
S'0x3F'
p1018
ssS'upload'
p1019
(dp1020
S'protocol'
p1021
S'arduino'
p1022
sS'maximum_size'
p1023
S'14336'
p1024
sS'speed'
p1025
S'19200'
p1026
ssS'name'
p1027
S'Arduino NG or older w/ ATmega168'
p1028
saa(lp1029
S'atmega8'
p1030
a(dp1031
S'build'
p1032
(dp1033
S'core'
p1034
S'arduino'
p1035
sS'mcu'
p1036
S'atmega8'
p1037
sS'f_cpu'
p1038
S'16000000L'
p1039
sS'variant'
p1040
S'standard'
p1041
ssS'bootloader'
p1042
(dp1043
S'high_fuses'
p1044
S'0xca'
p1045
sS'low_fuses'
p1046
S'0xdf'
p1047
sS'lock_bits'
p1048
S'0x0F'
p1049
sS'file'
p1050
S'ATmegaBOOT-prod-firmware-2009-11-07.hex'
p1051
sS'path'
p1052
S'atmega8'
p1053
sS'unlock_bits'
p1054
S'0x3F'
p1055
ssS'upload'
p1056
(dp1057
S'protocol'
p1058
S'arduino'
p1059
sS'maximum_size'
p1060
S'7168'
p1061
sS'speed'
p1062
S'19200'
p1063
ssS'name'
p1064
S'Arduino NG or older w/ ATmega8'
p1065
saa(lp1066
S'robotControl'
p1067
a(dp1068
S'build'
p1069
(dp1070
S'core'
p1071
S'robot'
p1072
sS'f_cpu'
p1073
S'16000000L'
p1074
sS'vid'
p1075
S'0x2341'
p1076
sS'pid'
p1077
S'0x8038'
p1078
sS'variant'
p1079
S'robot_control'
p1080
sS'mcu'
p1081
S'atmega32u4'
p1082
ssS'bootloader'
p1083
(dp1084
S'extended_fuses'
p1085
S'0xcb'
p1086
sS'high_fuses'
p1087
S'0xd8'
p1088
sS'low_fuses'
p1089
S'0xff'
p1090
sS'lock_bits'
p1091
S'0x2F'
p1092
sS'file'
p1093
S'Caterina-Robot-Control.hex'
p1094
sS'path'
p1095
S'caterina-Arduino_Robot'
p1096
sS'unlock_bits'
p1097
S'0x3F'
p1098
ssS'upload'
p1099
(dp1100
S'protocol'
p1101
S'avr109'
p1102
sS'maximum_size'
p1103
S'28672'
p1104
sS'speed'
p1105
S'57600'
p1106
sS'disable_flushing'
p1107
S'true'
p1108
ssS'name'
p1109
S'Arduino Robot Control'
p1110
saa(lp1111
S'robotMotor'
p1112
a(dp1113
S'build'
p1114
(dp1115
S'core'
p1116
S'robot'
p1117
sS'f_cpu'
p1118
S'16000000L'
p1119
sS'vid'
p1120
S'0x2341'
p1121
sS'pid'
p1122
S'0x8039'
p1123
sS'variant'
p1124
S'robot_motor'
p1125
sS'mcu'
p1126
S'atmega32u4'
p1127
ssS'bootloader'
p1128
(dp1129
S'extended_fuses'
p1130
S'0xcb'
p1131
sS'high_fuses'
p1132
S'0xd8'
p1133
sS'low_fuses'
p1134
S'0xff'
p1135
sS'lock_bits'
p1136
S'0x2F'
p1137
sS'file'
p1138
S'Caterina-Robot-Motor.hex'
p1139
sS'path'
p1140
S'caterina-Arduino_Robot'
p1141
sS'unlock_bits'
p1142
S'0x3F'
p1143
ssS'upload'
p1144
(dp1145
S'protocol'
p1146
S'avr109'
p1147
sS'maximum_size'
p1148
S'28672'
p1149
sS'speed'
p1150
S'57600'
p1151
sS'disable_flushing'
p1152
S'true'
p1153
ssS'name'
p1154
S'Arduino Robot Motor'
p1155
saatp1156
Rp1157
(dp1158
S'default'
p1159
S'uno'
p1160
sbtp1161
a(S'used_libs'
p1162
(lp1163
S'/Applications/Arduino.app/Contents/Resources/Java/libraries/Servo'
p1164
aS'/Applications/Arduino.app/Contents/Resources/Java/hardware/arduino/cores/arduino'
p1165
atp1166
a(S'make'
p1167
S'/Applications/Arduino.app/Contents/Resources/Java/hardware/tools/avr/bin/make'
p1168
tp1169
a(S'build_dir'
p1170
S'.build/mega2560'
p1171
tp1172
a(S'cc'
p1173
S'/Applications/Arduino.app/Contents/Resources/Java/hardware/tools/avr/bin/avr-gcc'
p1174
tp1175
a(S'cflags'
p1176
g2
(g3
g4
(lp1177
tp1178
Rp1179
tp1180
a(S'cxxflags'
p1181
g2
(g3
g4
(lp1182
S'-fno-exceptions'
p1183
atp1184
Rp1185
tp1186
a(S'arduino_variants_dir'
p1187
S'/Applications/Arduino.app/Contents/Resources/Java/hardware/arduino/variants'
p1188
tp1189
a(S'stty'
p1190
S'/bin/stty'
p1191
tp1192
a(S'version.txt'
p1193
S'/Applications/Arduino.app/Contents/Resources/Java/lib/version.txt'
p1194
tp1195
a(S'arduino_core_dir'
p1196
g1165
tp1197
a(S'boards.txt'
p1198
S'/Applications/Arduino.app/Contents/Resources/Java/hardware/arduino/boards.txt'
p1199
tp1200
a(S'avrdude.conf'
p1201
S'/Applications/Arduino.app/Contents/Resources/Java/hardware/tools/avr/etc/avrdude.conf'
p1202
tp1203
a(g42
g2
(g3
g4
(lp1204
S'.build/mega2560/src/dependencies.d'
p1205
aS'.build/mega2560/arduino/dependencies.d'
p1206
aS'.build/mega2560/Servo/dependencies.d'
p1207
atp1208
Rp1209
tp1210
a.